target datalayout = "e-m:e-p270:32:32-p271:32:32-p272:64:64-i64:64-i128:128-f80:128-n8:16:32:64-S128"
target triple = "x86_64-pc-linux-gnu"

; Function Attrs: nounwind uwtable
define dso_local i32 @zipStorePrevEntryLengthLarge(ptr noundef %0, i32 noundef %1) #0 {
  %3 = alloca ptr, align 8
  %4 = alloca i32, align 4
  %5 = alloca i32, align 4
  store ptr %0, ptr %3, align 8, !tbaa !5
  store i32 %1, ptr %4, align 4, !tbaa !12
  call void @llvm.lifetime.start.p0(i64 4, ptr %5) #11
  %6 = load ptr, ptr %3, align 8, !tbaa !5
  %7 = icmp ne ptr %6, null
  br i1 %7, label %8, label %14

8:                                                ; preds = %2
  %9 = load ptr, ptr %3, align 8, !tbaa !5
  %10 = getelementptr inbounds i8, ptr %9, i64 0
  store i8 -2, ptr %10, align 1, !tbaa !14
  %11 = load i32, ptr %4, align 4, !tbaa !12
  store i32 %11, ptr %5, align 4, !tbaa !12
  %12 = load ptr, ptr %3, align 8, !tbaa !5
  %13 = getelementptr inbounds i8, ptr %12, i64 1
  call void @llvm.memcpy.p0.p0.i64(ptr align 1 %13, ptr align 4 %5, i64 4, i1 false)
  br label %14

14:                                               ; preds = %8, %2
  call void @llvm.lifetime.end.p0(i64 4, ptr %5) #11
  ret i32 5
}

; Function Attrs: nounwind uwtable
define dso_local i32 @zipStorePrevEntryLength(ptr noundef %0, i32 noundef %1) #0 {
  %3 = alloca i32, align 4
  %4 = alloca ptr, align 8
  %5 = alloca i32, align 4
  store ptr %0, ptr %4, align 8, !tbaa !5
  store i32 %1, ptr %5, align 4, !tbaa !12
  %6 = load ptr, ptr %4, align 8, !tbaa !5
  %7 = icmp eq ptr %6, null
  br i1 %7, label %8, label %13

8:                                                ; preds = %2
  %9 = load i32, ptr %5, align 4, !tbaa !12
  %10 = icmp ult i32 %9, 254
  %11 = select i1 %10, i64 1, i64 5
  %12 = trunc i64 %11 to i32
  store i32 %12, ptr %3, align 4
  br label %25

13:                                               ; preds = %2
  %14 = load i32, ptr %5, align 4, !tbaa !12
  %15 = icmp ult i32 %14, 254
  br i1 %15, label %16, label %21

16:                                               ; preds = %13
  %17 = load i32, ptr %5, align 4, !tbaa !12
  %18 = trunc i32 %17 to i8
  %19 = load ptr, ptr %4, align 8, !tbaa !5
  %20 = getelementptr inbounds i8, ptr %19, i64 0
  store i8 %18, ptr %20, align 1, !tbaa !14
  store i32 1, ptr %3, align 4
  br label %25

21:                                               ; preds = %13
  %22 = load ptr, ptr %4, align 8, !tbaa !5
  %23 = load i32, ptr %5, align 4, !tbaa !12
  %24 = call i32 @zipStorePrevEntryLengthLarge(ptr noundef %22, i32 noundef %23)
  store i32 %24, ptr %3, align 4
  br label %25

25:                                               ; preds = %21, %16, %8
  %26 = load i32, ptr %3, align 4
  ret i32 %26
}

; Function Attrs: nounwind uwtable
define dso_local i32 @zipPrevLenByteDiff(ptr noundef %0, i32 noundef %1) #0 {
  %3 = alloca ptr, align 8
  %4 = alloca i32, align 4
  %5 = alloca i32, align 4
  store ptr %0, ptr %3, align 8, !tbaa !5
  store i32 %1, ptr %4, align 4, !tbaa !12
  call void @llvm.lifetime.start.p0(i64 4, ptr %5) #11
  br label %6

6:                                                ; preds = %2
  %7 = load ptr, ptr %3, align 8, !tbaa !5
  %8 = getelementptr inbounds i8, ptr %7, i64 0
  %9 = load i8, ptr %8, align 1, !tbaa !14
  %10 = zext i8 %9 to i32
  %11 = icmp slt i32 %10, 254
  br i1 %11, label %12, label %13

12:                                               ; preds = %6
  store i32 1, ptr %5, align 4, !tbaa !12
  br label %14

13:                                               ; preds = %6
  store i32 5, ptr %5, align 4, !tbaa !12
  br label %14

14:                                               ; preds = %13, %12
  br label %15

15:                                               ; preds = %14
  br label %16

16:                                               ; preds = %15
  %17 = load i32, ptr %4, align 4, !tbaa !12
  %18 = call i32 @zipStorePrevEntryLength(ptr noundef null, i32 noundef %17)
  %19 = load i32, ptr %5, align 4, !tbaa !12
  %20 = sub i32 %18, %19
  call void @llvm.lifetime.end.p0(i64 4, ptr %5) #11
  ret i32 %20
}