; Function Attrs: mustprogress nofree norecurse nosync nounwind willreturn memory(argmem: read) uwtable
define dso_local range(i32 -4, 5) i32 @zipPrevLenByteDiff(ptr noundef readonly captures(none) %0, i32 noundef %1) local_unnamed_addr #0 {
  %3 = load i8, ptr %0, align 1, !tbaa !9
  %4 = icmp ult i8 %3, -2
  %. = select i1 %4, i32 -1, i32 -5
  %5 = icmp ult i32 %1, 254
  %6 = select i1 %5, i32 1, i32 5
  %7 = add nsw i32 %., %6
  ret i32 %7
}